target datalayout = "e-m:e-p270:32:32-p271:32:32-p272:64:64-i64:64-i128:128-f80:128-n8:16:32:64-S128"
target triple = "x86_64-pc-linux-gnu"

; Function Attrs: nounwind uwtable
define internal void @ssim_4x4xn_8bit(ptr noundef %0, i64 noundef %1, ptr noundef %2, i64 noundef %3, ptr noundef %4, i32 noundef %5) #0 {
  %7 = alloca ptr, align 8
  %8 = alloca i64, align 8
  %9 = alloca ptr, align 8
  %10 = alloca i64, align 8
  %11 = alloca ptr, align 8
  %12 = alloca i32, align 4
  %13 = alloca i32, align 4
  %14 = alloca i32, align 4
  %15 = alloca i32, align 4
  %16 = alloca i32, align 4
  %17 = alloca i32, align 4
  %18 = alloca i32, align 4
  %19 = alloca i32, align 4
  %20 = alloca i32, align 4
  %21 = alloca i32, align 4
  store ptr %0, ptr %7, align 8, !tbaa !93
  store i64 %1, ptr %8, align 8, !tbaa !106
  store ptr %2, ptr %9, align 8, !tbaa !93
  store i64 %3, ptr %10, align 8, !tbaa !106
  store ptr %4, ptr %11, align 8, !tbaa !75
  store i32 %5, ptr %12, align 4, !tbaa !37
  call void @llvm.lifetime.start.p0(i64 4, ptr %13) #12
  call void @llvm.lifetime.start.p0(i64 4, ptr %14) #12
  call void @llvm.lifetime.start.p0(i64 4, ptr %15) #12
  store i32 0, ptr %15, align 4, !tbaa !37
  br label %22

22:                                               ; preds = %114, %6
  %23 = load i32, ptr %15, align 4, !tbaa !37
  %24 = load i32, ptr %12, align 4, !tbaa !37
  %25 = icmp slt i32 %23, %24
  br i1 %25, label %26, label %117

26:                                               ; preds = %22
  call void @llvm.lifetime.start.p0(i64 4, ptr %16) #12
  store i32 0, ptr %16, align 4, !tbaa !37
  call void @llvm.lifetime.start.p0(i64 4, ptr %17) #12
  store i32 0, ptr %17, align 4, !tbaa !37
  call void @llvm.lifetime.start.p0(i64 4, ptr %18) #12
  store i32 0, ptr %18, align 4, !tbaa !37
  call void @llvm.lifetime.start.p0(i64 4, ptr %19) #12
  store i32 0, ptr %19, align 4, !tbaa !37
  store i32 0, ptr %14, align 4, !tbaa !37
  br label %27

27:                                               ; preds = %82, %26
  %28 = load i32, ptr %14, align 4, !tbaa !37
  %29 = icmp slt i32 %28, 4
  br i1 %29, label %30, label %85

30:                                               ; preds = %27
  store i32 0, ptr %13, align 4, !tbaa !37
  br label %31

31:                                               ; preds = %78, %30
  %32 = load i32, ptr %13, align 4, !tbaa !37
  %33 = icmp slt i32 %32, 4
  br i1 %33, label %34, label %81

34:                                               ; preds = %31
  call void @llvm.lifetime.start.p0(i64 4, ptr %20) #12
  %35 = load ptr, ptr %7, align 8, !tbaa !93
  %36 = load i32, ptr %13, align 4, !tbaa !37
  %37 = sext i32 %36 to i64
  %38 = load i32, ptr %14, align 4, !tbaa !37
  %39 = sext i32 %38 to i64
  %40 = load i64, ptr %8, align 8, !tbaa !106
  %41 = mul nsw i64 %39, %40
  %42 = add nsw i64 %37, %41
  %43 = getelementptr inbounds i8, ptr %35, i64 %42
  %44 = load i8, ptr %43, align 1, !tbaa !40
  %45 = zext i8 %44 to i32
  store i32 %45, ptr %20, align 4, !tbaa !37
  call void @llvm.lifetime.start.p0(i64 4, ptr %21) #12
  %46 = load ptr, ptr %9, align 8, !tbaa !93
  %47 = load i32, ptr %13, align 4, !tbaa !37
  %48 = sext i32 %47 to i64
  %49 = load i32, ptr %14, align 4, !tbaa !37
  %50 = sext i32 %49 to i64
  %51 = load i64, ptr %10, align 8, !tbaa !106
  %52 = mul nsw i64 %50, %51
  %53 = add nsw i64 %48, %52
  %54 = getelementptr inbounds i8, ptr %46, i64 %53
  %55 = load i8, ptr %54, align 1, !tbaa !40
  %56 = zext i8 %55 to i32
  store i32 %56, ptr %21, align 4, !tbaa !37
  %57 = load i32, ptr %20, align 4, !tbaa !37
  %58 = load i32, ptr %16, align 4, !tbaa !37
  %59 = add i32 %58, %57
  store i32 %59, ptr %16, align 4, !tbaa !37
  %60 = load i32, ptr %21, align 4, !tbaa !37
  %61 = load i32, ptr %17, align 4, !tbaa !37
  %62 = add i32 %61, %60
  store i32 %62, ptr %17, align 4, !tbaa !37
  %63 = load i32, ptr %20, align 4, !tbaa !37
  %64 = load i32, ptr %20, align 4, !tbaa !37
  %65 = mul nsw i32 %63, %64
  %66 = load i32, ptr %18, align 4, !tbaa !37
  %67 = add i32 %66, %65
  store i32 %67, ptr %18, align 4, !tbaa !37
  %68 = load i32, ptr %21, align 4, !tbaa !37
  %69 = load i32, ptr %21, align 4, !tbaa !37
  %70 = mul nsw i32 %68, %69
  %71 = load i32, ptr %18, align 4, !tbaa !37
  %72 = add i32 %71, %70
  store i32 %72, ptr %18, align 4, !tbaa !37
  %73 = load i32, ptr %20, align 4, !tbaa !37
  %74 = load i32, ptr %21, align 4, !tbaa !37
  %75 = mul nsw i32 %73, %74
  %76 = load i32, ptr %19, align 4, !tbaa !37
  %77 = add i32 %76, %75
  store i32 %77, ptr %19, align 4, !tbaa !37
  call void @llvm.lifetime.end.p0(i64 4, ptr %21) #12
  call void @llvm.lifetime.end.p0(i64 4, ptr %20) #12
  br label %78

78:                                               ; preds = %34
  %79 = load i32, ptr %13, align 4, !tbaa !37
  %80 = add nsw i32 %79, 1
  store i32 %80, ptr %13, align 4, !tbaa !37
  br label %31, !llvm.loop !107

81:                                               ; preds = %31
  br label %82

82:                                               ; preds = %81
  %83 = load i32, ptr %14, align 4, !tbaa !37
  %84 = add nsw i32 %83, 1
  store i32 %84, ptr %14, align 4, !tbaa !37
  br label %27, !llvm.loop !108

85:                                               ; preds = %27
  %86 = load i32, ptr %16, align 4, !tbaa !37
  %87 = load ptr, ptr %11, align 8, !tbaa !75
  %88 = load i32, ptr %15, align 4, !tbaa !37
  %89 = sext i32 %88 to i64
  %90 = getelementptr inbounds [4 x i32], ptr %87, i64 %89
  %91 = getelementptr inbounds [4 x i32], ptr %90, i64 0, i64 0
  store i32 %86, ptr %91, align 4, !tbaa !37
  %92 = load i32, ptr %17, align 4, !tbaa !37
  %93 = load ptr, ptr %11, align 8, !tbaa !75
  %94 = load i32, ptr %15, align 4, !tbaa !37
  %95 = sext i32 %94 to i64
  %96 = getelementptr inbounds [4 x i32], ptr %93, i64 %95
  %97 = getelementptr inbounds [4 x i32], ptr %96, i64 0, i64 1
  store i32 %92, ptr %97, align 4, !tbaa !37
  %98 = load i32, ptr %18, align 4, !tbaa !37
  %99 = load ptr, ptr %11, align 8, !tbaa !75
  %100 = load i32, ptr %15, align 4, !tbaa !37
  %101 = sext i32 %100 to i64
  %102 = getelementptr inbounds [4 x i32], ptr %99, i64 %101
  %103 = getelementptr inbounds [4 x i32], ptr %102, i64 0, i64 2
  store i32 %98, ptr %103, align 4, !tbaa !37
  %104 = load i32, ptr %19, align 4, !tbaa !37
  %105 = load ptr, ptr %11, align 8, !tbaa !75
  %106 = load i32, ptr %15, align 4, !tbaa !37
  %107 = sext i32 %106 to i64
  %108 = getelementptr inbounds [4 x i32], ptr %105, i64 %107
  %109 = getelementptr inbounds [4 x i32], ptr %108, i64 0, i64 3
  store i32 %104, ptr %109, align 4, !tbaa !37
  %110 = load ptr, ptr %7, align 8, !tbaa !93
  %111 = getelementptr inbounds i8, ptr %110, i64 4
  store ptr %111, ptr %7, align 8, !tbaa !93
  %112 = load ptr, ptr %9, align 8, !tbaa !93
  %113 = getelementptr inbounds i8, ptr %112, i64 4
  store ptr %113, ptr %9, align 8, !tbaa !93
  call void @llvm.lifetime.end.p0(i64 4, ptr %19) #12
  call void @llvm.lifetime.end.p0(i64 4, ptr %18) #12
  call void @llvm.lifetime.end.p0(i64 4, ptr %17) #12
  call void @llvm.lifetime.end.p0(i64 4, ptr %16) #12
  br label %114

114:                                              ; preds = %85
  %115 = load i32, ptr %15, align 4, !tbaa !37
  %116 = add nsw i32 %115, 1
  store i32 %116, ptr %15, align 4, !tbaa !37
  br label %22, !llvm.loop !109

117:                                              ; preds = %22
  call void @llvm.lifetime.end.p0(i64 4, ptr %15) #12
  call void @llvm.lifetime.end.p0(i64 4, ptr %14) #12
  call void @llvm.lifetime.end.p0(i64 4, ptr %13) #12
  ret void
}