; Function Attrs: nofree norecurse nosync nounwind memory(argmem: readwrite) uwtable
define internal void @ssim_4x4xn_8bit(ptr noundef readonly captures(none) %0, i64 noundef %1, ptr noundef readonly captures(none) %2, i64 noundef %3, ptr noundef writeonly captures(none) %4, i32 noundef %5) #6 {
  %7 = icmp sgt i32 %5, 0
  br i1 %7, label %.preheader52.preheader, label %._crit_edge

.preheader52.preheader:                           ; preds = %6
  %wide.trip.count = zext nneg i32 %5 to i64
  br label %.preheader52

.preheader52:                                     ; preds = %.preheader52.preheader, %28
  %indvars.iv74 = phi i64 [ 0, %.preheader52.preheader ], [ %indvars.iv.next75, %28 ]
  %.065 = phi ptr [ %0, %.preheader52.preheader ], [ %33, %28 ]
  %.04164 = phi ptr [ %2, %.preheader52.preheader ], [ %34, %28 ]
  br label %.preheader

.preheader:                                       ; preds = %.preheader52, %27
  %indvars.iv70 = phi i64 [ 0, %.preheader52 ], [ %indvars.iv.next71, %27 ]
  %.04262 = phi i32 [ 0, %.preheader52 ], [ %26, %27 ]
  %.04361 = phi i32 [ 0, %.preheader52 ], [ %24, %27 ]
  %.04560 = phi i32 [ 0, %.preheader52 ], [ %20, %27 ]
  %.04759 = phi i32 [ 0, %.preheader52 ], [ %19, %27 ]
  %8 = mul nsw i64 %1, %indvars.iv70
  %9 = getelementptr i8, ptr %.065, i64 %8
  %10 = mul nsw i64 %3, %indvars.iv70
  %11 = getelementptr i8, ptr %.04164, i64 %10
  br label %12

12:                                               ; preds = %.preheader, %12
  %indvars.iv = phi i64 [ 0, %.preheader ], [ %indvars.iv.next, %12 ]
  %.157 = phi i32 [ %.04262, %.preheader ], [ %26, %12 ]
  %.14456 = phi i32 [ %.04361, %.preheader ], [ %24, %12 ]
  %.14655 = phi i32 [ %.04560, %.preheader ], [ %20, %12 ]
  %.14854 = phi i32 [ %.04759, %.preheader ], [ %19, %12 ]
  %13 = getelementptr i8, ptr %9, i64 %indvars.iv
  %14 = load i8, ptr %13, align 1, !tbaa !37
  %15 = zext i8 %14 to i32
  %16 = getelementptr i8, ptr %11, i64 %indvars.iv
  %17 = load i8, ptr %16, align 1, !tbaa !37
  %18 = zext i8 %17 to i32
  %19 = add i32 %.14854, %15
  %20 = add i32 %.14655, %18
  %21 = mul nuw nsw i32 %15, %15
  %22 = add i32 %21, %.14456
  %23 = mul nuw nsw i32 %18, %18
  %24 = add i32 %22, %23
  %25 = mul nuw nsw i32 %18, %15
  %26 = add i32 %25, %.157
  %indvars.iv.next = add nuw nsw i64 %indvars.iv, 1
  %exitcond.not = icmp eq i64 %indvars.iv.next, 4
  br i1 %exitcond.not, label %27, label %12, !llvm.loop !102

27:                                               ; preds = %12
  %indvars.iv.next71 = add nuw nsw i64 %indvars.iv70, 1
  %exitcond73.not = icmp eq i64 %indvars.iv.next71, 4
  br i1 %exitcond73.not, label %28, label %.preheader, !llvm.loop !103

28:                                               ; preds = %27
  %29 = getelementptr inbounds nuw [4 x i32], ptr %4, i64 %indvars.iv74
  store i32 %19, ptr %29, align 4, !tbaa !34
  %30 = getelementptr inbounds nuw i8, ptr %29, i64 4
  store i32 %20, ptr %30, align 4, !tbaa !34
  %31 = getelementptr inbounds nuw i8, ptr %29, i64 8
  store i32 %24, ptr %31, align 4, !tbaa !34
  %32 = getelementptr inbounds nuw i8, ptr %29, i64 12
  store i32 %26, ptr %32, align 4, !tbaa !34
  %33 = getelementptr inbounds nuw i8, ptr %.065, i64 4
  %34 = getelementptr inbounds nuw i8, ptr %.04164, i64 4
  %indvars.iv.next75 = add nuw nsw i64 %indvars.iv74, 1
  %exitcond77.not = icmp eq i64 %indvars.iv.next75, %wide.trip.count
  br i1 %exitcond77.not, label %._crit_edge, label %.preheader52, !llvm.loop !104

._crit_edge:                                      ; preds = %28, %6
  ret void
}